target datalayout = "e-m:e-p270:32:32-p271:32:32-p272:64:64-i64:64-i128:128-f80:128-n8:16:32:64-S128"
target triple = "x86_64-pc-linux-gnu"

%struct.rows_t = type { ptr, i64, i64, i64 }
%struct.htmlparserstate_s = type { ptr, ptr, %struct.textspans_t, %struct.htextspans_t, ptr, %struct.sfont_t, ptr }
%struct.textspans_t = type { ptr, i64, i64, i64 }
%struct.htextspans_t = type { ptr, i64, i64, i64 }
%struct.sfont_t = type { ptr, i64, i64, i64 }
%struct.htmltbl_t = type { %struct.htmldata_t, %union.anon.0, i8, ptr, ptr, i64, i64, ptr, i8 }
%struct.htmldata_t = type { ptr, ptr, ptr, ptr, ptr, ptr, ptr, i32, i8, i8, i8, i8, i16, i16, i16, %struct.htmlstyle_t, %struct.boxf }
%struct.htmlstyle_t = type { i8 }
%struct.boxf = type { %struct.pointf_s, %struct.pointf_s }
%struct.pointf_s = type { double, double }
%union.anon.0 = type { %struct.anon.2 }
%struct.anon.2 = type { ptr, %struct.rows_t }
%struct.row_t = type { %struct.cells_t, i8 }
%struct.cells_t = type { ptr, i64, i64, i64 }
%struct.htmlcell_t = type { %struct.htmldata_t, i16, i16, i16, i16, %struct.htmllabel_t, ptr, i8 }
%struct.htmllabel_t = type { %union.anon.3, i32 }
%union.anon.3 = type { ptr }

@stderr = external global ptr, align 8
@.str.11 = private unnamed_addr constant [20 x i8] c"realloc failed: %s\0A\00", align 1

; Function Attrs: inlinehint nounwind uwtable
define internal i32 @cells_try_append(ptr noundef %0, ptr noundef %1) #6 {
  %3 = alloca i32, align 4
  %4 = alloca ptr, align 8
  %5 = alloca ptr, align 8
  %6 = alloca i64, align 8
  %7 = alloca i32, align 4
  %8 = alloca ptr, align 8
  %9 = alloca i64, align 8
  %10 = alloca i64, align 8
  %11 = alloca i64, align 8
  store ptr %0, ptr %4, align 8, !tbaa !36
  store ptr %1, ptr %5, align 8, !tbaa !107
  %12 = load ptr, ptr %4, align 8, !tbaa !36
  %13 = getelementptr inbounds nuw %struct.cells_t, ptr %12, i32 0, i32 2
  %14 = load i64, ptr %13, align 8, !tbaa !140
  %15 = load ptr, ptr %4, align 8, !tbaa !36
  %16 = getelementptr inbounds nuw %struct.cells_t, ptr %15, i32 0, i32 3
  %17 = load i64, ptr %16, align 8, !tbaa !141
  %18 = icmp eq i64 %14, %17
  br i1 %18, label %19, label %113

19:                                               ; preds = %2
  call void @llvm.lifetime.start.p0(i64 8, ptr %6) #13
  %20 = load ptr, ptr %4, align 8, !tbaa !36
  %21 = getelementptr inbounds nuw %struct.cells_t, ptr %20, i32 0, i32 3
  %22 = load i64, ptr %21, align 8, !tbaa !141
  %23 = icmp eq i64 %22, 0
  br i1 %23, label %24, label %25

24:                                               ; preds = %19
  br label %30

25:                                               ; preds = %19
  %26 = load ptr, ptr %4, align 8, !tbaa !36
  %27 = getelementptr inbounds nuw %struct.cells_t, ptr %26, i32 0, i32 3
  %28 = load i64, ptr %27, align 8, !tbaa !141
  %29 = mul i64 %28, 2
  br label %30

30:                                               ; preds = %25, %24
  %31 = phi i64 [ 1, %24 ], [ %29, %25 ]
  store i64 %31, ptr %6, align 8, !tbaa !12
  %32 = load i64, ptr %6, align 8, !tbaa !12
  %33 = udiv i64 -1, %32
  %34 = icmp ult i64 %33, 8
  br i1 %34, label %35, label %36

35:                                               ; preds = %30
  store i32 34, ptr %3, align 4
  store i32 1, ptr %7, align 4
  br label %110

36:                                               ; preds = %30
  call void @llvm.lifetime.start.p0(i64 8, ptr %8) #13
  %37 = load ptr, ptr %4, align 8, !tbaa !36
  %38 = getelementptr inbounds nuw %struct.cells_t, ptr %37, i32 0, i32 0
  %39 = load ptr, ptr %38, align 8, !tbaa !142
  %40 = load i64, ptr %6, align 8, !tbaa !12
  %41 = mul i64 %40, 8
  %42 = call ptr @realloc(ptr noundef %39, i64 noundef %41) #18
  store ptr %42, ptr %8, align 8, !tbaa !143
  %43 = load ptr, ptr %8, align 8, !tbaa !143
  %44 = icmp eq ptr %43, null
  br i1 %44, label %45, label %46

45:                                               ; preds = %36
  store i32 12, ptr %3, align 4
  store i32 1, ptr %7, align 4
  br label %109

46:                                               ; preds = %36
  %47 = load ptr, ptr %8, align 8, !tbaa !143
  %48 = load ptr, ptr %4, align 8, !tbaa !36
  %49 = getelementptr inbounds nuw %struct.cells_t, ptr %48, i32 0, i32 3
  %50 = load i64, ptr %49, align 8, !tbaa !141
  %51 = getelementptr inbounds nuw ptr, ptr %47, i64 %50
  %52 = load i64, ptr %6, align 8, !tbaa !12
  %53 = load ptr, ptr %4, align 8, !tbaa !36
  %54 = getelementptr inbounds nuw %struct.cells_t, ptr %53, i32 0, i32 3
  %55 = load i64, ptr %54, align 8, !tbaa !141
  %56 = sub i64 %52, %55
  %57 = mul i64 %56, 8
  call void @llvm.memset.p0.i64(ptr align 8 %51, i8 0, i64 %57, i1 false)
  br label %58

58:                                               ; preds = %46
  br label %59

59:                                               ; preds = %58
  br label %60

60:                                               ; preds = %59
  %61 = load ptr, ptr %4, align 8, !tbaa !36
  %62 = getelementptr inbounds nuw %struct.cells_t, ptr %61, i32 0, i32 1
  %63 = load i64, ptr %62, align 8, !tbaa !144
  %64 = load ptr, ptr %4, align 8, !tbaa !36
  %65 = getelementptr inbounds nuw %struct.cells_t, ptr %64, i32 0, i32 2
  %66 = load i64, ptr %65, align 8, !tbaa !140
  %67 = add i64 %63, %66
  %68 = load ptr, ptr %4, align 8, !tbaa !36
  %69 = getelementptr inbounds nuw %struct.cells_t, ptr %68, i32 0, i32 3
  %70 = load i64, ptr %69, align 8, !tbaa !141
  %71 = icmp ugt i64 %67, %70
  br i1 %71, label %72, label %102

72:                                               ; preds = %60
  call void @llvm.lifetime.start.p0(i64 8, ptr %9) #13
  %73 = load ptr, ptr %4, align 8, !tbaa !36
  %74 = getelementptr inbounds nuw %struct.cells_t, ptr %73, i32 0, i32 3
  %75 = load i64, ptr %74, align 8, !tbaa !141
  %76 = load ptr, ptr %4, align 8, !tbaa !36
  %77 = getelementptr inbounds nuw %struct.cells_t, ptr %76, i32 0, i32 1
  %78 = load i64, ptr %77, align 8, !tbaa !144
  %79 = sub i64 %75, %78
  store i64 %79, ptr %9, align 8, !tbaa !12
  call void @llvm.lifetime.start.p0(i64 8, ptr %10) #13
  %80 = load i64, ptr %6, align 8, !tbaa !12
  %81 = load i64, ptr %9, align 8, !tbaa !12
  %82 = sub i64 %80, %81
  store i64 %82, ptr %10, align 8, !tbaa !12
  br label %83

83:                                               ; preds = %72
  br label %84

84:                                               ; preds = %83
  br label %85

85:                                               ; preds = %84
  %86 = load ptr, ptr %8, align 8, !tbaa !143
  %87 = load i64, ptr %10, align 8, !tbaa !12
  %88 = getelementptr inbounds nuw ptr, ptr %86, i64 %87
  %89 = load ptr, ptr %8, align 8, !tbaa !143
  %90 = load ptr, ptr %4, align 8, !tbaa !36
  %91 = getelementptr inbounds nuw %struct.cells_t, ptr %90, i32 0, i32 1
  %92 = load i64, ptr %91, align 8, !tbaa !144
  %93 = getelementptr inbounds nuw ptr, ptr %89, i64 %92
  %94 = load i64, ptr %9, align 8, !tbaa !12
  %95 = mul i64 %94, 8
  call void @llvm.memmove.p0.p0.i64(ptr align 8 %88, ptr align 8 %93, i64 %95, i1 false)
  br label %96

96:                                               ; preds = %85
  br label %97

97:                                               ; preds = %96
  br label %98

98:                                               ; preds = %97
  %99 = load i64, ptr %10, align 8, !tbaa !12
  %100 = load ptr, ptr %4, align 8, !tbaa !36
  %101 = getelementptr inbounds nuw %struct.cells_t, ptr %100, i32 0, i32 1
  store i64 %99, ptr %101, align 8, !tbaa !144
  call void @llvm.lifetime.end.p0(i64 8, ptr %10) #13
  call void @llvm.lifetime.end.p0(i64 8, ptr %9) #13
  br label %102

102:                                              ; preds = %98, %60
  %103 = load ptr, ptr %8, align 8, !tbaa !143
  %104 = load ptr, ptr %4, align 8, !tbaa !36
  %105 = getelementptr inbounds nuw %struct.cells_t, ptr %104, i32 0, i32 0
  store ptr %103, ptr %105, align 8, !tbaa !142
  %106 = load i64, ptr %6, align 8, !tbaa !12
  %107 = load ptr, ptr %4, align 8, !tbaa !36
  %108 = getelementptr inbounds nuw %struct.cells_t, ptr %107, i32 0, i32 3
  store i64 %106, ptr %108, align 8, !tbaa !141
  store i32 0, ptr %7, align 4
  br label %109

109:                                              ; preds = %102, %45
  call void @llvm.lifetime.end.p0(i64 8, ptr %8) #13
  br label %110

110:                                              ; preds = %109, %35
  call void @llvm.lifetime.end.p0(i64 8, ptr %6) #13
  %111 = load i32, ptr %7, align 4
  switch i32 %111, label %140 [
    i32 0, label %112
    i32 1, label %138
  ]

112:                                              ; preds = %110
  br label %113

113:                                              ; preds = %112, %2
  call void @llvm.lifetime.start.p0(i64 8, ptr %11) #13
  %114 = load ptr, ptr %4, align 8, !tbaa !36
  %115 = getelementptr inbounds nuw %struct.cells_t, ptr %114, i32 0, i32 1
  %116 = load i64, ptr %115, align 8, !tbaa !144
  %117 = load ptr, ptr %4, align 8, !tbaa !36
  %118 = getelementptr inbounds nuw %struct.cells_t, ptr %117, i32 0, i32 2
  %119 = load i64, ptr %118, align 8, !tbaa !140
  %120 = add i64 %116, %119
  %121 = load ptr, ptr %4, align 8, !tbaa !36
  %122 = getelementptr inbounds nuw %struct.cells_t, ptr %121, i32 0, i32 3
  %123 = load i64, ptr %122, align 8, !tbaa !141
  %124 = urem i64 %120, %123
  store i64 %124, ptr %11, align 8, !tbaa !12
  br label %125

125:                                              ; preds = %113
  br label %126

126:                                              ; preds = %125
  br label %127

127:                                              ; preds = %126
  %128 = load ptr, ptr %5, align 8, !tbaa !107
  %129 = load ptr, ptr %4, align 8, !tbaa !36
  %130 = getelementptr inbounds nuw %struct.cells_t, ptr %129, i32 0, i32 0
  %131 = load ptr, ptr %130, align 8, !tbaa !142
  %132 = load i64, ptr %11, align 8, !tbaa !12
  %133 = getelementptr inbounds nuw ptr, ptr %131, i64 %132
  store ptr %128, ptr %133, align 8, !tbaa !107
  %134 = load ptr, ptr %4, align 8, !tbaa !36
  %135 = getelementptr inbounds nuw %struct.cells_t, ptr %134, i32 0, i32 2
  %136 = load i64, ptr %135, align 8, !tbaa !140
  %137 = add i64 %136, 1
  store i64 %137, ptr %135, align 8, !tbaa !140
  store i32 0, ptr %3, align 4
  store i32 1, ptr %7, align 4
  call void @llvm.lifetime.end.p0(i64 8, ptr %11) #13
  br label %138

138:                                              ; preds = %127, %110
  %139 = load i32, ptr %3, align 4
  ret i32 %139

140:                                              ; preds = %110
  unreachable
}

; Function Attrs: inlinehint nounwind uwtable
define internal ptr @rows_at(ptr noundef %0, i64 noundef %1) #6 {
  %3 = alloca ptr, align 8
  %4 = alloca i64, align 8
  store ptr %0, ptr %3, align 8, !tbaa !36
  store i64 %1, ptr %4, align 8, !tbaa !12
  %5 = load ptr, ptr %3, align 8, !tbaa !36
  %6 = getelementptr inbounds nuw %struct.rows_t, ptr %5, i32 0, i32 0
  %7 = load ptr, ptr %6, align 8, !tbaa !131
  %8 = load ptr, ptr %3, align 8, !tbaa !36
  %9 = getelementptr inbounds nuw %struct.rows_t, ptr %8, i32 0, i32 1
  %10 = load i64, ptr %9, align 8, !tbaa !134
  %11 = load i64, ptr %4, align 8, !tbaa !12
  %12 = add i64 %10, %11
  %13 = load ptr, ptr %3, align 8, !tbaa !36
  %14 = getelementptr inbounds nuw %struct.rows_t, ptr %13, i32 0, i32 3
  %15 = load i64, ptr %14, align 8, !tbaa !135
  %16 = urem i64 %12, %15
  %17 = getelementptr inbounds nuw ptr, ptr %7, i64 %16
  ret ptr %17
}

; Function Attrs: inlinehint nounwind uwtable
define internal i64 @rows_size(ptr noundef %0) #6 {
  %2 = alloca ptr, align 8
  store ptr %0, ptr %2, align 8, !tbaa !36
  %3 = load ptr, ptr %2, align 8, !tbaa !36
  %4 = getelementptr inbounds nuw %struct.rows_t, ptr %3, i32 0, i32 2
  %5 = load i64, ptr %4, align 8, !tbaa !136
  ret i64 %5
}

; Function Attrs: inlinehint nounwind uwtable
define internal void @cells_append(ptr noundef %0, ptr noundef %1) #6 {
  %3 = alloca ptr, align 8
  %4 = alloca ptr, align 8
  %5 = alloca i32, align 4
  store ptr %0, ptr %3, align 8, !tbaa !36
  store ptr %1, ptr %4, align 8, !tbaa !107
  call void @llvm.lifetime.start.p0(i64 4, ptr %5) #13
  %6 = load ptr, ptr %3, align 8, !tbaa !36
  %7 = load ptr, ptr %4, align 8, !tbaa !107
  %8 = call i32 @cells_try_append(ptr noundef %6, ptr noundef %7)
  store i32 %8, ptr %5, align 4, !tbaa !10
  %9 = load i32, ptr %5, align 4, !tbaa !10
  %10 = icmp ne i32 %9, 0
  br i1 %10, label %11, label %16

11:                                               ; preds = %2
  %12 = load ptr, ptr @stderr, align 8, !tbaa !132
  %13 = load i32, ptr %5, align 4, !tbaa !10
  %14 = call ptr @strerror(i32 noundef %13) #13
  %15 = call i32 (ptr, ptr, ...) @fprintf(ptr noundef %12, ptr noundef @.str.11, ptr noundef %14) #13
  call void @graphviz_exit(i32 noundef 1) #15
  unreachable

16:                                               ; preds = %2
  call void @llvm.lifetime.end.p0(i64 4, ptr %5) #13
  ret void
}

; Function Attrs: inlinehint nounwind uwtable
define internal ptr @rows_back(ptr noundef %0) #6 {
  %2 = alloca ptr, align 8
  store ptr %0, ptr %2, align 8, !tbaa !36
  %3 = load ptr, ptr %2, align 8, !tbaa !36
  %4 = load ptr, ptr %2, align 8, !tbaa !36
  %5 = call i64 @rows_size(ptr noundef %4)
  %6 = sub i64 %5, 1
  %7 = call ptr @rows_at(ptr noundef %3, i64 noundef %6)
  ret ptr %7
}

; Function Attrs: nounwind uwtable
define internal void @setCell(ptr noundef %0, ptr noundef %1, ptr noundef %2, i32 noundef %3) #0 {
  %5 = alloca ptr, align 8
  %6 = alloca ptr, align 8
  %7 = alloca ptr, align 8
  %8 = alloca i32, align 4
  %9 = alloca ptr, align 8
  %10 = alloca ptr, align 8
  %11 = alloca ptr, align 8
  store ptr %0, ptr %5, align 8, !tbaa !55
  store ptr %1, ptr %6, align 8, !tbaa !107
  store ptr %2, ptr %7, align 8, !tbaa !36
  store i32 %3, ptr %8, align 4, !tbaa !10
  call void @llvm.lifetime.start.p0(i64 8, ptr %9) #13
  %12 = load ptr, ptr %5, align 8, !tbaa !55
  %13 = getelementptr inbounds nuw %struct.htmlparserstate_s, ptr %12, i32 0, i32 1
  %14 = load ptr, ptr %13, align 8, !tbaa !57
  store ptr %14, ptr %9, align 8, !tbaa !58
  call void @llvm.lifetime.start.p0(i64 8, ptr %10) #13
  %15 = load ptr, ptr %9, align 8, !tbaa !58
  %16 = getelementptr inbounds nuw %struct.htmltbl_t, ptr %15, i32 0, i32 1
  %17 = getelementptr inbounds nuw %struct.anon.2, ptr %16, i32 0, i32 1
  %18 = call ptr @rows_back(ptr noundef %17)
  %19 = load ptr, ptr %18, align 8, !tbaa !36
  store ptr %19, ptr %10, align 8, !tbaa !36
  call void @llvm.lifetime.start.p0(i64 8, ptr %11) #13
  %20 = load ptr, ptr %10, align 8, !tbaa !36
  %21 = getelementptr inbounds nuw %struct.row_t, ptr %20, i32 0, i32 0
  store ptr %21, ptr %11, align 8, !tbaa !36
  %22 = load ptr, ptr %11, align 8, !tbaa !36
  %23 = load ptr, ptr %6, align 8, !tbaa !107
  call void @cells_append(ptr noundef %22, ptr noundef %23)
  %24 = load i32, ptr %8, align 4, !tbaa !10
  %25 = load ptr, ptr %6, align 8, !tbaa !107
  %26 = getelementptr inbounds nuw %struct.htmlcell_t, ptr %25, i32 0, i32 5
  %27 = getelementptr inbounds nuw %struct.htmllabel_t, ptr %26, i32 0, i32 1
  store i32 %24, ptr %27, align 8, !tbaa !109
  %28 = load ptr, ptr %9, align 8, !tbaa !58
  %29 = getelementptr inbounds nuw %struct.htmltbl_t, ptr %28, i32 0, i32 8
  %30 = load i8, ptr %29, align 8
  %31 = lshr i8 %30, 1
  %32 = and i8 %31, 1
  %33 = trunc i8 %32 to i1
  br i1 %33, label %34, label %45

34:                                               ; preds = %4
  %35 = load ptr, ptr %6, align 8, !tbaa !107
  %36 = getelementptr inbounds nuw %struct.htmlcell_t, ptr %35, i32 0, i32 7
  %37 = load i8, ptr %36, align 8
  %38 = and i8 %37, -2
  %39 = or i8 %38, 1
  store i8 %39, ptr %36, align 8
  %40 = load ptr, ptr %6, align 8, !tbaa !107
  %41 = getelementptr inbounds nuw %struct.htmlcell_t, ptr %40, i32 0, i32 7
  %42 = load i8, ptr %41, align 8
  %43 = and i8 %42, -3
  %44 = or i8 %43, 0
  store i8 %44, ptr %41, align 8
  br label %45

45:                                               ; preds = %34, %4
  %46 = load i32, ptr %8, align 4, !tbaa !10
  %47 = icmp eq i32 %46, 2
  br i1 %47, label %48, label %53

48:                                               ; preds = %45
  %49 = load ptr, ptr %7, align 8, !tbaa !36
  %50 = load ptr, ptr %6, align 8, !tbaa !107
  %51 = getelementptr inbounds nuw %struct.htmlcell_t, ptr %50, i32 0, i32 5
  %52 = getelementptr inbounds nuw %struct.htmllabel_t, ptr %51, i32 0, i32 0
  store ptr %49, ptr %52, align 8, !tbaa !9
  br label %67

53:                                               ; preds = %45
  %54 = load i32, ptr %8, align 4, !tbaa !10
  %55 = icmp eq i32 %54, 3
  br i1 %55, label %56, label %61

56:                                               ; preds = %53
  %57 = load ptr, ptr %7, align 8, !tbaa !36
  %58 = load ptr, ptr %6, align 8, !tbaa !107
  %59 = getelementptr inbounds nuw %struct.htmlcell_t, ptr %58, i32 0, i32 5
  %60 = getelementptr inbounds nuw %struct.htmllabel_t, ptr %59, i32 0, i32 0
  store ptr %57, ptr %60, align 8, !tbaa !9
  br label %66

61:                                               ; preds = %53
  %62 = load ptr, ptr %7, align 8, !tbaa !36
  %63 = load ptr, ptr %6, align 8, !tbaa !107
  %64 = getelementptr inbounds nuw %struct.htmlcell_t, ptr %63, i32 0, i32 5
  %65 = getelementptr inbounds nuw %struct.htmllabel_t, ptr %64, i32 0, i32 0
  store ptr %62, ptr %65, align 8, !tbaa !9
  br label %66

66:                                               ; preds = %61, %56
  br label %67

67:                                               ; preds = %66, %48
  call void @llvm.lifetime.end.p0(i64 8, ptr %11) #13
  call void @llvm.lifetime.end.p0(i64 8, ptr %10) #13
  call void @llvm.lifetime.end.p0(i64 8, ptr %9) #13
  ret void
}