; Function Attrs: nounwind uwtable
define internal fastcc void @setCell(ptr readonly captures(none) %.8.val, ptr noundef %0, ptr noundef %1, i32 noundef range(i32 1, 4) %2) unnamed_addr #0 {
  %4 = getelementptr inbounds nuw i8, ptr %.8.val, i64 112
  %5 = getelementptr i8, ptr %.8.val, i64 128
  %.val.i = load i64, ptr %5, align 8, !tbaa !29
  %6 = add i64 %.val.i, -1
  %7 = load ptr, ptr %4, align 8, !tbaa !30
  %8 = getelementptr inbounds nuw i8, ptr %.8.val, i64 120
  %9 = load i64, ptr %8, align 8, !tbaa !31
  %10 = add i64 %6, %9
  %11 = getelementptr inbounds nuw i8, ptr %.8.val, i64 136
  %12 = load i64, ptr %11, align 8, !tbaa !32
  %13 = urem i64 %10, %12
  %14 = getelementptr inbounds nuw ptr, ptr %7, i64 %13
  %15 = load ptr, ptr %14, align 8, !tbaa !33
  %16 = getelementptr inbounds nuw i8, ptr %15, i64 16
  %17 = load i64, ptr %16, align 8, !tbaa !110
  %18 = getelementptr inbounds nuw i8, ptr %15, i64 24
  %19 = load i64, ptr %18, align 8, !tbaa !111
  %20 = icmp eq i64 %17, %19
  br i1 %20, label %21, label %._crit_edge.i.i

._crit_edge.i.i:                                  ; preds = %3
  %.phi.trans.insert.i.i = getelementptr inbounds nuw i8, ptr %15, i64 8
  %.pre.i.i = load i64, ptr %.phi.trans.insert.i.i, align 8, !tbaa !112
  %.pre46.i.i = load ptr, ptr %15, align 8, !tbaa !113
  br label %cells_append.exit

21:                                               ; preds = %3
  %22 = icmp eq i64 %17, 0
  %23 = shl i64 %17, 1
  %spec.select.i.i = select i1 %22, i64 1, i64 %23
  %mul.ov.i.i = icmp ugt i64 %spec.select.i.i, 2305843009213693951
  br i1 %mul.ov.i.i, label %47, label %24

24:                                               ; preds = %21
  %25 = load ptr, ptr %15, align 8, !tbaa !113
  %26 = shl nuw i64 %spec.select.i.i, 3
  %27 = tail call ptr @realloc(ptr noundef %25, i64 noundef %26) #21
  %28 = icmp eq ptr %27, null
  br i1 %28, label %47, label %29

29:                                               ; preds = %24
  %30 = load i64, ptr %18, align 8, !tbaa !111
  %31 = getelementptr inbounds nuw ptr, ptr %27, i64 %30
  %32 = sub i64 %spec.select.i.i, %30
  %33 = shl i64 %32, 3
  tail call void @llvm.memset.p0.i64(ptr nonnull align 8 %31, i8 0, i64 %33, i1 false)
  %34 = getelementptr inbounds nuw i8, ptr %15, i64 8
  %35 = load i64, ptr %34, align 8, !tbaa !112
  %36 = load i64, ptr %16, align 8, !tbaa !110
  %37 = add i64 %36, %35
  %38 = icmp ugt i64 %37, %30
  br i1 %38, label %39, label %45

39:                                               ; preds = %29
  %40 = sub i64 %30, %35
  %41 = sub i64 %spec.select.i.i, %40
  %42 = getelementptr inbounds nuw ptr, ptr %27, i64 %41
  %43 = getelementptr inbounds nuw ptr, ptr %27, i64 %35
  %44 = shl i64 %40, 3
  tail call void @llvm.memmove.p0.p0.i64(ptr nonnull align 8 %42, ptr nonnull align 8 %43, i64 %44, i1 false)
  store i64 %41, ptr %34, align 8, !tbaa !112
  br label %45

45:                                               ; preds = %39, %29
  %46 = phi i64 [ %35, %29 ], [ %41, %39 ]
  store ptr %27, ptr %15, align 8, !tbaa !113
  store i64 %spec.select.i.i, ptr %18, align 8, !tbaa !111
  br label %cells_append.exit

47:                                               ; preds = %24, %21
  %.2.i.ph.i = phi i32 [ 34, %21 ], [ 12, %24 ]
  %48 = load ptr, ptr @stderr, align 8, !tbaa !8
  %49 = tail call ptr @strerror(i32 noundef %.2.i.ph.i) #16
  %50 = tail call i32 (ptr, ptr, ...) @fprintf(ptr noundef %48, ptr noundef nonnull @.str.11, ptr noundef %49) #19
  tail call fastcc void @graphviz_exit() #20
  unreachable

cells_append.exit:                                ; preds = %._crit_edge.i.i, %45
  %51 = phi ptr [ %.pre46.i.i, %._crit_edge.i.i ], [ %27, %45 ]
  %52 = phi i64 [ %19, %._crit_edge.i.i ], [ %spec.select.i.i, %45 ]
  %53 = phi i64 [ %17, %._crit_edge.i.i ], [ %36, %45 ]
  %54 = phi i64 [ %.pre.i.i, %._crit_edge.i.i ], [ %46, %45 ]
  %55 = add i64 %54, %53
  %56 = urem i64 %55, %52
  %57 = getelementptr inbounds nuw ptr, ptr %51, i64 %56
  store ptr %0, ptr %57, align 8, !tbaa !114
  %58 = add i64 %53, 1
  store i64 %58, ptr %16, align 8, !tbaa !110
  %59 = getelementptr inbounds nuw i8, ptr %0, i64 120
  store i32 %2, ptr %59, align 8, !tbaa !116
  %60 = getelementptr inbounds nuw i8, ptr %.8.val, i64 192
  %61 = load i8, ptr %60, align 8
  %62 = and i8 %61, 2
  %.not = icmp eq i8 %62, 0
  br i1 %.not, label %68, label %63

63:                                               ; preds = %cells_append.exit
  %64 = getelementptr inbounds nuw i8, ptr %0, i64 136
  %65 = load i8, ptr %64, align 8
  %66 = and i8 %65, -4
  %67 = or disjoint i8 %66, 1
  store i8 %67, ptr %64, align 8
  br label %68

68:                                               ; preds = %63, %cells_append.exit
  %69 = getelementptr inbounds nuw i8, ptr %0, i64 112
  store ptr %1, ptr %69, align 8, !tbaa !3
  ret void
}